target datalayout = "e-m:e-p270:32:32-p271:32:32-p272:64:64-i64:64-i128:128-f80:128-n8:16:32:64-S128"
target triple = "x86_64-pc-linux-gnu"

%"struct.std::pair" = type { i32, i32 }

; Function Attrs: mustprogress uwtable
define noundef i32 @_ZN32pxrInternal_v0_24__pxrReserved__32Ts_GetEffectiveExtrapolationTypeERKNS_10TsKeyFrameERKSt4pairINS_19TsExtrapolationTypeES4_EbNS_6TsSideE(ptr noundef nonnull align 8 dereferenceable(72) %0, ptr noundef nonnull align 4 dereferenceable(8) %1, i1 noundef zeroext %2, i32 noundef %3) #4 {
  %5 = alloca i32, align 4
  %6 = alloca ptr, align 8
  %7 = alloca ptr, align 8
  %8 = alloca i8, align 1
  %9 = alloca i32, align 4
  store ptr %0, ptr %6, align 8
  store ptr %1, ptr %7, align 8
  %10 = zext i1 %2 to i8
  store i8 %10, ptr %8, align 1
  store i32 %3, ptr %9, align 4
  %11 = load ptr, ptr %6, align 8
  %12 = call noundef i32 @_ZNK32pxrInternal_v0_24__pxrReserved__10TsKeyFrame11GetKnotTypeEv(ptr noundef nonnull align 8 dereferenceable(72) %11)
  %13 = icmp eq i32 %12, 0
  br i1 %13, label %14, label %15

14:                                               ; preds = %4
  store i32 0, ptr %5, align 4
  br label %42

15:                                               ; preds = %4
  %16 = load ptr, ptr %6, align 8
  %17 = call noundef zeroext i1 @_ZNK32pxrInternal_v0_24__pxrReserved__10TsKeyFrame11HasTangentsEv(ptr noundef nonnull align 8 dereferenceable(72) %16)
  br i1 %17, label %22, label %18

18:                                               ; preds = %15
  %19 = load ptr, ptr %6, align 8
  %20 = call noundef zeroext i1 @_ZNK32pxrInternal_v0_24__pxrReserved__10TsKeyFrame15GetIsDualValuedEv(ptr noundef nonnull align 8 dereferenceable(72) %19)
  br i1 %20, label %21, label %22

21:                                               ; preds = %18
  store i32 0, ptr %5, align 4
  br label %42

22:                                               ; preds = %18, %15
  %23 = load ptr, ptr %6, align 8
  %24 = call noundef zeroext i1 @_ZNK32pxrInternal_v0_24__pxrReserved__10TsKeyFrame11HasTangentsEv(ptr noundef nonnull align 8 dereferenceable(72) %23)
  br i1 %24, label %29, label %25

25:                                               ; preds = %22
  %26 = load i8, ptr %8, align 1
  %27 = trunc i8 %26 to i1
  br i1 %27, label %28, label %29

28:                                               ; preds = %25
  store i32 0, ptr %5, align 4
  br label %42

29:                                               ; preds = %25, %22
  %30 = load i32, ptr %9, align 4
  %31 = icmp eq i32 %30, 0
  br i1 %31, label %32, label %36

32:                                               ; preds = %29
  %33 = load ptr, ptr %7, align 8
  %34 = getelementptr inbounds nuw %"struct.std::pair", ptr %33, i32 0, i32 0
  %35 = load i32, ptr %34, align 4
  br label %40

36:                                               ; preds = %29
  %37 = load ptr, ptr %7, align 8
  %38 = getelementptr inbounds nuw %"struct.std::pair", ptr %37, i32 0, i32 1
  %39 = load i32, ptr %38, align 4
  br label %40

40:                                               ; preds = %36, %32
  %41 = phi i32 [ %35, %32 ], [ %39, %36 ]
  store i32 %41, ptr %5, align 4
  br label %42

42:                                               ; preds = %40, %28, %21, %14
  %43 = load i32, ptr %5, align 4
  ret i32 %43
}