; Function Attrs: mustprogress uwtable
define noundef i32 @_ZN32pxrInternal_v0_24__pxrReserved__32Ts_GetEffectiveExtrapolationTypeERKNS_10TsKeyFrameERKSt4pairINS_19TsExtrapolationTypeES4_EbNS_6TsSideE(ptr noundef nonnull align 8 dereferenceable(72) %0, ptr nocapture noundef nonnull readonly align 4 dereferenceable(8) %1, i1 noundef zeroext %2, i32 noundef %3) local_unnamed_addr #3 {
  %5 = tail call noundef i32 @_ZNK32pxrInternal_v0_24__pxrReserved__10TsKeyFrame11GetKnotTypeEv(ptr noundef nonnull align 8 dereferenceable(72) %0)
  %6 = icmp eq i32 %5, 0
  br i1 %6, label %16, label %7

7:                                                ; preds = %4
  %8 = tail call noundef zeroext i1 @_ZNK32pxrInternal_v0_24__pxrReserved__10TsKeyFrame11HasTangentsEv(ptr noundef nonnull align 8 dereferenceable(72) %0)
  br i1 %8, label %11, label %9

9:                                                ; preds = %7
  %10 = tail call noundef zeroext i1 @_ZNK32pxrInternal_v0_24__pxrReserved__10TsKeyFrame15GetIsDualValuedEv(ptr noundef nonnull align 8 dereferenceable(72) %0)
  br i1 %10, label %16, label %11

11:                                               ; preds = %9, %7
  %12 = tail call noundef zeroext i1 @_ZNK32pxrInternal_v0_24__pxrReserved__10TsKeyFrame11HasTangentsEv(ptr noundef nonnull align 8 dereferenceable(72) %0)
  %.not = xor i1 %2, true
  %brmerge = or i1 %12, %.not
  br i1 %brmerge, label %13, label %16

13:                                               ; preds = %11
  %14 = icmp eq i32 %3, 0
  %.in.idx = select i1 %14, i64 0, i64 4
  %.in = getelementptr inbounds nuw i8, ptr %1, i64 %.in.idx
  %15 = load i32, ptr %.in, align 4
  br label %16

16:                                               ; preds = %11, %9, %4, %13
  %.0 = phi i32 [ %15, %13 ], [ 0, %4 ], [ 0, %9 ], [ 0, %11 ]
  ret i32 %.0
}